#include <math.h>
#include <stdio.h>
#include <stdlib.h>
#include <string.h>


int main() 
{
	float a[100],b[100],c[100];
	int n,i;
	double k,m,p;
	scanf("%d",&n);
	for (i=1;i<=n;i++)
		scanf("%f %f %f",&a[i],&b[i],&c[i]);
	for (i=1;i<=n;i++)
	{
		k=(b[i]*b[i]-4*a[i]*c[i]);
		if(k==0)
			printf("x1=x2=%.5lf\n",(-b[i])/(2*a[i]));
		if(k>0)
			printf("x1=%.5lf;x2=%.5lf\n",((-b[i])+sqrt(k))/(2*a[i]),((-b[i])-sqrt(k))/(2*a[i]));
		if(k<0) 
		{
			m=(-b[i])/(2*a[i]);
			p=sqrt((-k))/(2*a[i]);
			printf("x1=%.5lf+%.5lfi;x2=%.5lf-%.5lfi\n",m,p,m,p);
		}
	}
	return 0;

}

